target datalayout = "e-m:e-p270:32:32-p271:32:32-p272:64:64-i64:64-i128:128-f80:128-n8:16:32:64-S128"
target triple = "x86_64-pc-linux-gnu"

%"class.net::TcpCubicSenderBase" = type <{ %"class.net::SendAlgorithmInterface", %"class.net::HybridSlowStart", %"class.net::PrrSender", ptr, ptr, i8, [3 x i8], i32, i64, i64, i64, i8, i8, i8, i8, i8, [3 x i8] }>
%"class.net::SendAlgorithmInterface" = type { ptr }
%"class.net::HybridSlowStart" = type { i8, i32, i64, i64, i32, %"class.net::QuicTime::Delta" }
%"class.net::QuicTime::Delta" = type { %"class.base::TimeDelta", i64 }
%"class.base::TimeDelta" = type { i64 }
%"class.net::PrrSender" = type { i64, i64, i64, i64 }

; Function Attrs: mustprogress nounwind uwtable
define linkonce_odr void @_ZN3net22SendAlgorithmInterfaceD2Ev(ptr noundef nonnull align 8 dereferenceable(8) %0) unnamed_addr #3 comdat align 2 {
  %2 = alloca ptr, align 8
  store ptr %0, ptr %2, align 8, !tbaa !41
  ret void
}

; Function Attrs: inlinehint mustprogress nounwind uwtable
define linkonce_odr void @_ZN3net22SendAlgorithmInterfaceC2Ev(ptr noundef nonnull align 8 dereferenceable(8) %0) unnamed_addr #1 comdat align 2 {
  %2 = alloca ptr, align 8
  store ptr %0, ptr %2, align 8, !tbaa !41
  %3 = load ptr, ptr %2, align 8
  store ptr getelementptr inbounds inrange(-16, 160) ({ [22 x ptr] }, ptr @_ZTVN3net22SendAlgorithmInterfaceE, i32 0, i32 0, i32 2), ptr %3, align 8, !tbaa !16
  ret void
}

; Function Attrs: mustprogress uwtable
define void @_ZN3net18TcpCubicSenderBaseC2EPKNS_9QuicClockEPKNS_8RttStatsEbPNS_19QuicConnectionStatsE(ptr noundef nonnull align 8 dereferenceable(141) %0, ptr noundef %1, ptr noundef %2, i1 noundef zeroext %3, ptr noundef %4) unnamed_addr #0 align 2 personality ptr @__gxx_personality_v0 {
  %6 = alloca ptr, align 8
  %7 = alloca ptr, align 8
  %8 = alloca ptr, align 8
  %9 = alloca i8, align 1
  %10 = alloca ptr, align 8
  %11 = alloca ptr, align 8
  %12 = alloca i32, align 4
  store ptr %0, ptr %6, align 8, !tbaa !3
  store ptr %1, ptr %7, align 8, !tbaa !8
  store ptr %2, ptr %8, align 8, !tbaa !10
  %13 = zext i1 %3 to i8
  store i8 %13, ptr %9, align 1, !tbaa !12
  store ptr %4, ptr %10, align 8, !tbaa !14
  %14 = load ptr, ptr %6, align 8
  call void @_ZN3net22SendAlgorithmInterfaceC2Ev(ptr noundef nonnull align 8 dereferenceable(8) %14) #13
  store ptr getelementptr inbounds inrange(-16, 216) ({ [29 x ptr] }, ptr @_ZTVN3net18TcpCubicSenderBaseE, i32 0, i32 0, i32 2), ptr %14, align 8, !tbaa !16
  %15 = getelementptr inbounds nuw %"class.net::TcpCubicSenderBase", ptr %14, i32 0, i32 1
  invoke void @_ZN3net15HybridSlowStartC1Ev(ptr noundef nonnull align 8 dereferenceable(48) %15)
          to label %16 unwind label %36

16:                                               ; preds = %5
  %17 = getelementptr inbounds nuw %"class.net::TcpCubicSenderBase", ptr %14, i32 0, i32 2
  invoke void @_ZN3net9PrrSenderC1Ev(ptr noundef nonnull align 8 dereferenceable(32) %17)
          to label %18 unwind label %36

18:                                               ; preds = %16
  %19 = getelementptr inbounds nuw %"class.net::TcpCubicSenderBase", ptr %14, i32 0, i32 3
  %20 = load ptr, ptr %8, align 8, !tbaa !10
  store ptr %20, ptr %19, align 8, !tbaa !18
  %21 = getelementptr inbounds nuw %"class.net::TcpCubicSenderBase", ptr %14, i32 0, i32 4
  %22 = load ptr, ptr %10, align 8, !tbaa !14
  store ptr %22, ptr %21, align 8, !tbaa !28
  %23 = getelementptr inbounds nuw %"class.net::TcpCubicSenderBase", ptr %14, i32 0, i32 5
  %24 = load i8, ptr %9, align 1, !tbaa !12, !range !29, !noundef !30
  %25 = trunc i8 %24 to i1
  %26 = zext i1 %25 to i8
  store i8 %26, ptr %23, align 8, !tbaa !31
  %27 = getelementptr inbounds nuw %"class.net::TcpCubicSenderBase", ptr %14, i32 0, i32 7
  store i32 2, ptr %27, align 4, !tbaa !32
  %28 = getelementptr inbounds nuw %"class.net::TcpCubicSenderBase", ptr %14, i32 0, i32 8
  store i64 0, ptr %28, align 8, !tbaa !33
  %29 = getelementptr inbounds nuw %"class.net::TcpCubicSenderBase", ptr %14, i32 0, i32 9
  store i64 0, ptr %29, align 8, !tbaa !34
  %30 = getelementptr inbounds nuw %"class.net::TcpCubicSenderBase", ptr %14, i32 0, i32 10
  store i64 0, ptr %30, align 8, !tbaa !35
  %31 = getelementptr inbounds nuw %"class.net::TcpCubicSenderBase", ptr %14, i32 0, i32 11
  store i8 0, ptr %31, align 8, !tbaa !36
  %32 = getelementptr inbounds nuw %"class.net::TcpCubicSenderBase", ptr %14, i32 0, i32 12
  store i8 0, ptr %32, align 1, !tbaa !37
  %33 = getelementptr inbounds nuw %"class.net::TcpCubicSenderBase", ptr %14, i32 0, i32 13
  store i8 0, ptr %33, align 2, !tbaa !38
  %34 = getelementptr inbounds nuw %"class.net::TcpCubicSenderBase", ptr %14, i32 0, i32 14
  store i8 0, ptr %34, align 1, !tbaa !39
  %35 = getelementptr inbounds nuw %"class.net::TcpCubicSenderBase", ptr %14, i32 0, i32 15
  store i8 0, ptr %35, align 4, !tbaa !40
  ret void

36:                                               ; preds = %16, %5
  %37 = landingpad { ptr, i32 }
          cleanup
  %38 = extractvalue { ptr, i32 } %37, 0
  store ptr %38, ptr %11, align 8
  %39 = extractvalue { ptr, i32 } %37, 1
  store i32 %39, ptr %12, align 4
  call void @_ZN3net22SendAlgorithmInterfaceD2Ev(ptr noundef nonnull align 8 dereferenceable(8) %14) #13
  br label %40

40:                                               ; preds = %36
  %41 = load ptr, ptr %11, align 8
  %42 = load i32, ptr %12, align 4
  %43 = insertvalue { ptr, i32 } poison, ptr %41, 0
  %44 = insertvalue { ptr, i32 } %43, i32 %42, 1
  resume { ptr, i32 } %44
}