; Function Attrs: mustprogress uwtable
define void @_ZN3net18TcpCubicSenderBaseC2EPKNS_9QuicClockEPKNS_8RttStatsEbPNS_19QuicConnectionStatsE(ptr noundef nonnull align 8 dereferenceable(141) initializes((0, 8)) %0, ptr noundef readnone captures(none) %1, ptr noundef %2, i1 noundef zeroext %3, ptr noundef %4) unnamed_addr #0 align 2 personality ptr @__gxx_personality_v0 {
  store ptr getelementptr inbounds nuw inrange(-16, 216) (i8, ptr @_ZTVN3net18TcpCubicSenderBaseE, i64 16), ptr %0, align 8, !tbaa !3
  %6 = getelementptr inbounds nuw i8, ptr %0, i64 8
  tail call void @_ZN3net15HybridSlowStartC1Ev(ptr noundef nonnull align 8 dereferenceable(48) %6)
  %7 = getelementptr inbounds nuw i8, ptr %0, i64 56
  tail call void @_ZN3net9PrrSenderC1Ev(ptr noundef nonnull align 8 dereferenceable(32) %7)
  %8 = zext i1 %3 to i8
  %9 = getelementptr inbounds nuw i8, ptr %0, i64 88
  store ptr %2, ptr %9, align 8, !tbaa !6
  %10 = getelementptr inbounds nuw i8, ptr %0, i64 96
  store ptr %4, ptr %10, align 8, !tbaa !21
  %11 = getelementptr inbounds nuw i8, ptr %0, i64 104
  store i8 %8, ptr %11, align 8, !tbaa !22
  %12 = getelementptr inbounds nuw i8, ptr %0, i64 108
  store i32 2, ptr %12, align 4, !tbaa !23
  %13 = getelementptr inbounds nuw i8, ptr %0, i64 112
  tail call void @llvm.memset.p0.i64(ptr noundef nonnull align 8 dereferenceable(29) %13, i8 0, i64 29, i1 false)
  ret void
}